target datalayout = "e-m:e-p270:32:32-p271:32:32-p272:64:64-i64:64-i128:128-f80:128-n8:16:32:64-S128"
target triple = "x86_64-pc-linux-gnu"

%struct.URLContext = type { ptr, ptr, ptr, ptr, i32, i32, i32, i32, %struct.AVIOInterruptCB, i64, ptr, ptr, i32 }
%struct.AVIOInterruptCB = type { ptr, ptr }
%struct.MMSHContext = type { %struct.MMSContext, [1024 x i8], i32, i32 }
%struct.MMSContext = type { ptr, ptr, ptr, [512 x i8], [65536 x i8], ptr, i32, ptr, i32, i32, i32, i32, i32, i32 }

; Function Attrs: nounwind uwtable
define internal i32 @mmsh_close(ptr noundef %0) #0 {
  %2 = alloca ptr, align 8
  %3 = alloca ptr, align 8
  %4 = alloca ptr, align 8
  store ptr %0, ptr %2, align 8, !tbaa !4
  call void @llvm.lifetime.start.p0(i64 8, ptr %3) #5
  %5 = load ptr, ptr %2, align 8, !tbaa !4
  %6 = getelementptr inbounds nuw %struct.URLContext, ptr %5, i32 0, i32 2
  %7 = load ptr, ptr %6, align 8, !tbaa !13
  store ptr %7, ptr %3, align 8, !tbaa !19
  call void @llvm.lifetime.start.p0(i64 8, ptr %4) #5
  %8 = load ptr, ptr %3, align 8, !tbaa !19
  %9 = getelementptr inbounds nuw %struct.MMSHContext, ptr %8, i32 0, i32 0
  store ptr %9, ptr %4, align 8, !tbaa !21
  %10 = load ptr, ptr %4, align 8, !tbaa !21
  %11 = getelementptr inbounds nuw %struct.MMSContext, ptr %10, i32 0, i32 0
  %12 = call i32 @ffurl_closep(ptr noundef %11)
  %13 = load ptr, ptr %4, align 8, !tbaa !21
  %14 = getelementptr inbounds nuw %struct.MMSContext, ptr %13, i32 0, i32 1
  call void @av_freep(ptr noundef %14)
  %15 = load ptr, ptr %4, align 8, !tbaa !21
  %16 = getelementptr inbounds nuw %struct.MMSContext, ptr %15, i32 0, i32 7
  call void @av_freep(ptr noundef %16)
  call void @llvm.lifetime.end.p0(i64 8, ptr %4) #5
  call void @llvm.lifetime.end.p0(i64 8, ptr %3) #5
  ret i32 0
}