; Function Attrs: nounwind uwtable
define internal noundef i32 @mmsh_close(ptr noundef readonly captures(none) %0) #0 {
  %2 = getelementptr inbounds nuw i8, ptr %0, i64 16
  %3 = load ptr, ptr %2, align 8, !tbaa !4
  %4 = tail call i32 @ffurl_closep(ptr noundef %3) #7
  %5 = getelementptr inbounds nuw i8, ptr %3, i64 8
  tail call void @av_freep(ptr noundef nonnull %5) #7
  %6 = getelementptr inbounds nuw i8, ptr %3, i64 66088
  tail call void @av_freep(ptr noundef nonnull %6) #7
  ret i32 0
}